target datalayout = "e-m:e-p270:32:32-p271:32:32-p272:64:64-i64:64-i128:128-f80:128-n8:16:32:64-S128"
target triple = "x86_64-pc-linux-gnu"

%struct.cli_ctx_tag = type { ptr, ptr, ptr, ptr, ptr, ptr, ptr, i64, ptr, i32, i32, ptr, i32, i32, ptr, [16 x i8], ptr, ptr, ptr, ptr, ptr, ptr, %struct.timeval, i8, i8 }
%struct.timeval = type { i64, i64 }
%struct.cl_fmap = type { ptr, ptr, ptr, i64, i64, i64, i64, i8, i8, i8, i64, i64, i64, i64, ptr, ptr, ptr, ptr, ptr, ptr, ptr, i8, [16 x i8], i8, [20 x i8], i8, [32 x i8], ptr, ptr }
%struct.cl_engine = type { i32, i32, i32, [2 x i32], i32, i32, i32, ptr, i32, i64, i32, i32, i64, i64, i32, i32, i32, i32, ptr, ptr, ptr, ptr, ptr, ptr, ptr, ptr, ptr, ptr, ptr, ptr, ptr, ptr, ptr, ptr, ptr, ptr, ptr, i64, ptr, %struct.crtmgr, ptr, ptr, ptr, ptr, ptr, ptr, ptr, ptr, ptr, ptr, ptr, ptr, ptr, ptr, ptr, ptr, ptr, %struct.cli_all_bc, [7 x ptr], [7 x i32], i32, i32, i32, i32, i64, i64, i64, i64, i64, ptr, ptr, ptr, ptr, ptr, ptr, ptr, ptr, ptr, i32, i32, i32, i64, i64, i64, ptr }
%struct.crtmgr = type { ptr, i32 }
%struct.cli_all_bc = type { ptr, i32, ptr, %struct.cli_environment, i32 }
%struct.cli_environment = type { i32, i32, i32, i32, i32, i32, i32, [65 x i8], [65 x i8], [65 x i8], [65 x i8], [65 x i8], [65 x i8], [65 x i8], i8, i8, i8, i8, i8, i8, i8, i8, i8 }

@.str.286 = private unnamed_addr constant [32 x i8] c"CryptFF: Can't allocate memory\0A\00", align 1
@.str.287 = private unnamed_addr constant [8 x i8] c"cryptff\00", align 1
@.str.288 = private unnamed_addr constant [31 x i8] c"CryptFF: Can't create file %s\0A\00", align 1
@.str.289 = private unnamed_addr constant [39 x i8] c"CryptFF: Can't write to descriptor %d\0A\00", align 1
@.str.290 = private unnamed_addr constant [34 x i8] c"CryptFF: Scanning decrypted data\0A\00", align 1
@.str.291 = private unnamed_addr constant [40 x i8] c"CryptFF: Decompressed data saved in %s\0A\00", align 1

; Function Attrs: nounwind uwtable
define internal ptr @fmap_need_off_once(ptr noundef %0, i64 noundef %1, i64 noundef %2) #0 {
  %4 = alloca ptr, align 8
  %5 = alloca i64, align 8
  %6 = alloca i64, align 8
  store ptr %0, ptr %4, align 8
  store i64 %1, ptr %5, align 8
  store i64 %2, ptr %6, align 8
  %7 = load ptr, ptr %4, align 8
  %8 = getelementptr inbounds %struct.cl_fmap, ptr %7, i32 0, i32 15
  %9 = load ptr, ptr %8, align 8
  %10 = load ptr, ptr %4, align 8
  %11 = load i64, ptr %5, align 8
  %12 = load i64, ptr %6, align 8
  %13 = call ptr %9(ptr noundef %10, i64 noundef %11, i64 noundef %12, i32 noundef 0)
  ret ptr %13
}

; Function Attrs: nounwind uwtable
define i32 @cli_magic_scan_desc(i32 noundef %0, ptr noundef %1, ptr noundef %2, ptr noundef %3, i32 noundef %4) #0 {
  %6 = alloca i32, align 4
  %7 = alloca ptr, align 8
  %8 = alloca ptr, align 8
  %9 = alloca ptr, align 8
  %10 = alloca i32, align 4
  store i32 %0, ptr %6, align 4
  store ptr %1, ptr %7, align 8
  store ptr %2, ptr %8, align 8
  store ptr %3, ptr %9, align 8
  store i32 %4, ptr %10, align 4
  %11 = load i32, ptr %6, align 4
  %12 = load ptr, ptr %7, align 8
  %13 = load ptr, ptr %8, align 8
  %14 = load ptr, ptr %9, align 8
  %15 = load i32, ptr %10, align 4
  %16 = call i32 @cli_magic_scan_desc_type(i32 noundef %11, ptr noundef %12, ptr noundef %13, i32 noundef 0, ptr noundef %14, i32 noundef %15)
  ret i32 %16
}

; Function Attrs: nounwind uwtable
define internal ptr @fmap_need_off_once_len(ptr noundef %0, i64 noundef %1, i64 noundef %2, ptr noundef %3) #0 {
  %5 = alloca ptr, align 8
  %6 = alloca ptr, align 8
  %7 = alloca i64, align 8
  %8 = alloca i64, align 8
  %9 = alloca ptr, align 8
  %10 = alloca ptr, align 8
  store ptr %0, ptr %6, align 8
  store i64 %1, ptr %7, align 8
  store i64 %2, ptr %8, align 8
  store ptr %3, ptr %9, align 8
  %11 = load i64, ptr %7, align 8
  %12 = load ptr, ptr %6, align 8
  %13 = getelementptr inbounds %struct.cl_fmap, ptr %12, i32 0, i32 13
  %14 = load i64, ptr %13, align 8
  %15 = icmp uge i64 %11, %14
  br i1 %15, label %16, label %18

16:                                               ; preds = %4
  %17 = load ptr, ptr %9, align 8
  store i64 0, ptr %17, align 8
  store ptr null, ptr %5, align 8
  br label %46

18:                                               ; preds = %4
  %19 = load i64, ptr %8, align 8
  %20 = load ptr, ptr %6, align 8
  %21 = getelementptr inbounds %struct.cl_fmap, ptr %20, i32 0, i32 13
  %22 = load i64, ptr %21, align 8
  %23 = load i64, ptr %7, align 8
  %24 = sub i64 %22, %23
  %25 = icmp ugt i64 %19, %24
  br i1 %25, label %26, label %32

26:                                               ; preds = %18
  %27 = load ptr, ptr %6, align 8
  %28 = getelementptr inbounds %struct.cl_fmap, ptr %27, i32 0, i32 13
  %29 = load i64, ptr %28, align 8
  %30 = load i64, ptr %7, align 8
  %31 = sub i64 %29, %30
  store i64 %31, ptr %8, align 8
  br label %32

32:                                               ; preds = %26, %18
  %33 = load ptr, ptr %6, align 8
  %34 = load i64, ptr %7, align 8
  %35 = load i64, ptr %8, align 8
  %36 = call ptr @fmap_need_off_once(ptr noundef %33, i64 noundef %34, i64 noundef %35)
  store ptr %36, ptr %10, align 8
  %37 = load ptr, ptr %10, align 8
  %38 = icmp ne ptr %37, null
  br i1 %38, label %39, label %41

39:                                               ; preds = %32
  %40 = load i64, ptr %8, align 8
  br label %42

41:                                               ; preds = %32
  br label %42

42:                                               ; preds = %41, %39
  %43 = phi i64 [ %40, %39 ], [ 0, %41 ]
  %44 = load ptr, ptr %9, align 8
  store i64 %43, ptr %44, align 8
  %45 = load ptr, ptr %10, align 8
  store ptr %45, ptr %5, align 8
  br label %46

46:                                               ; preds = %42, %16
  %47 = load ptr, ptr %5, align 8
  ret ptr %47
}

; Function Attrs: nounwind uwtable
define internal i32 @cli_scancryptff(ptr noundef %0) #0 {
  %2 = alloca i32, align 4
  %3 = alloca ptr, align 8
  %4 = alloca i32, align 4
  %5 = alloca i32, align 4
  %6 = alloca i32, align 4
  %7 = alloca ptr, align 8
  %8 = alloca ptr, align 8
  %9 = alloca ptr, align 8
  %10 = alloca i64, align 8
  %11 = alloca i64, align 8
  store ptr %0, ptr %3, align 8
  store i32 0, ptr %4, align 4
  store ptr null, ptr %8, align 8
  store i64 16, ptr %10, align 8
  %12 = call noalias ptr @malloc(i64 noundef 8192) #10
  store ptr %12, ptr %8, align 8
  %13 = icmp eq ptr %12, null
  br i1 %13, label %14, label %15

14:                                               ; preds = %1
  call void (ptr, ...) @cli_dbgmsg(ptr noundef @.str.286)
  store i32 20, ptr %2, align 4
  br label %108

15:                                               ; preds = %1
  %16 = load ptr, ptr %3, align 8
  %17 = getelementptr inbounds %struct.cli_ctx_tag, ptr %16, i32 0, i32 2
  %18 = load ptr, ptr %17, align 8
  %19 = call ptr @cli_gentemp_with_prefix(ptr noundef %18, ptr noundef @.str.287)
  store ptr %19, ptr %9, align 8
  %20 = icmp ne ptr %19, null
  br i1 %20, label %23, label %21

21:                                               ; preds = %15
  %22 = load ptr, ptr %8, align 8
  call void @free(ptr noundef %22) #11
  store i32 20, ptr %2, align 4
  br label %108

23:                                               ; preds = %15
  %24 = load ptr, ptr %9, align 8
  %25 = call i32 (ptr, i32, ...) @open(ptr noundef %24, i32 noundef 578, i32 noundef 384)
  store i32 %25, ptr %5, align 4
  %26 = icmp ult i32 %25, 0
  br i1 %26, label %27, label %31

27:                                               ; preds = %23
  %28 = load ptr, ptr %9, align 8
  call void (ptr, ...) @cli_errmsg(ptr noundef @.str.288, ptr noundef %28)
  %29 = load ptr, ptr %8, align 8
  call void @free(ptr noundef %29) #11
  %30 = load ptr, ptr %9, align 8
  call void @free(ptr noundef %30) #11
  store i32 9, ptr %2, align 4
  br label %108

31:                                               ; preds = %23
  br label %32

32:                                               ; preds = %79, %31
  %33 = load ptr, ptr %3, align 8
  %34 = getelementptr inbounds %struct.cli_ctx_tag, ptr %33, i32 0, i32 14
  %35 = load ptr, ptr %34, align 8
  %36 = load i64, ptr %10, align 8
  %37 = call ptr @fmap_need_off_once_len(ptr noundef %35, i64 noundef %36, i64 noundef 8192, ptr noundef %11)
  store ptr %37, ptr %7, align 8
  %38 = icmp ne ptr %37, null
  br i1 %38, label %39, label %42

39:                                               ; preds = %32
  %40 = load i64, ptr %11, align 8
  %41 = icmp ne i64 %40, 0
  br label %42

42:                                               ; preds = %39, %32
  %43 = phi i1 [ false, %32 ], [ %41, %39 ]
  br i1 %43, label %44, label %83

44:                                               ; preds = %42
  store i32 0, ptr %6, align 4
  br label %45

45:                                               ; preds = %63, %44
  %46 = load i32, ptr %6, align 4
  %47 = zext i32 %46 to i64
  %48 = load i64, ptr %11, align 8
  %49 = icmp ult i64 %47, %48
  br i1 %49, label %50, label %66

50:                                               ; preds = %45
  %51 = load ptr, ptr %7, align 8
  %52 = load i32, ptr %6, align 4
  %53 = zext i32 %52 to i64
  %54 = getelementptr inbounds i8, ptr %51, i64 %53
  %55 = load i8, ptr %54, align 1
  %56 = zext i8 %55 to i32
  %57 = xor i32 %56, 255
  %58 = trunc i32 %57 to i8
  %59 = load ptr, ptr %8, align 8
  %60 = load i32, ptr %6, align 4
  %61 = zext i32 %60 to i64
  %62 = getelementptr inbounds i8, ptr %59, i64 %61
  store i8 %58, ptr %62, align 1
  br label %63

63:                                               ; preds = %50
  %64 = load i32, ptr %6, align 4
  %65 = add i32 %64, 1
  store i32 %65, ptr %6, align 4
  br label %45

66:                                               ; preds = %45
  %67 = load i32, ptr %5, align 4
  %68 = load ptr, ptr %8, align 8
  %69 = load i64, ptr %11, align 8
  %70 = call i64 @cli_writen(i32 noundef %67, ptr noundef %68, i64 noundef %69)
  %71 = icmp eq i64 %70, -1
  br i1 %71, label %72, label %78

72:                                               ; preds = %66
  %73 = load i32, ptr %5, align 4
  call void (ptr, ...) @cli_dbgmsg(ptr noundef @.str.289, i32 noundef %73)
  %74 = load ptr, ptr %8, align 8
  call void @free(ptr noundef %74) #11
  %75 = load i32, ptr %5, align 4
  %76 = call i32 @close(i32 noundef %75)
  %77 = load ptr, ptr %9, align 8
  call void @free(ptr noundef %77) #11
  store i32 14, ptr %2, align 4
  br label %108

78:                                               ; preds = %66
  br label %79

79:                                               ; preds = %78
  %80 = load i64, ptr %11, align 8
  %81 = load i64, ptr %10, align 8
  %82 = add i64 %81, %80
  store i64 %82, ptr %10, align 8
  br label %32

83:                                               ; preds = %42
  %84 = load ptr, ptr %8, align 8
  call void @free(ptr noundef %84) #11
  call void (ptr, ...) @cli_dbgmsg(ptr noundef @.str.290)
  %85 = load i32, ptr %5, align 4
  %86 = load ptr, ptr %9, align 8
  %87 = load ptr, ptr %3, align 8
  %88 = call i32 @cli_magic_scan_desc(i32 noundef %85, ptr noundef %86, ptr noundef %87, ptr noundef null, i32 noundef 0)
  store i32 %88, ptr %4, align 4
  %89 = load i32, ptr %5, align 4
  %90 = call i32 @close(i32 noundef %89)
  %91 = load ptr, ptr %3, align 8
  %92 = getelementptr inbounds %struct.cli_ctx_tag, ptr %91, i32 0, i32 6
  %93 = load ptr, ptr %92, align 8
  %94 = getelementptr inbounds %struct.cl_engine, ptr %93, i32 0, i32 8
  %95 = load i32, ptr %94, align 8
  %96 = icmp ne i32 %95, 0
  br i1 %96, label %97, label %99

97:                                               ; preds = %83
  %98 = load ptr, ptr %9, align 8
  call void (ptr, ...) @cli_dbgmsg(ptr noundef @.str.291, ptr noundef %98)
  br label %105

99:                                               ; preds = %83
  %100 = load ptr, ptr %9, align 8
  %101 = call i32 @cli_unlink(ptr noundef %100)
  %102 = icmp ne i32 0, %101
  br i1 %102, label %103, label %104

103:                                              ; preds = %99
  store i32 10, ptr %4, align 4
  br label %104

104:                                              ; preds = %103, %99
  br label %105

105:                                              ; preds = %104, %97
  %106 = load ptr, ptr %9, align 8
  call void @free(ptr noundef %106) #11
  %107 = load i32, ptr %4, align 4
  store i32 %107, ptr %2, align 4
  br label %108

108:                                              ; preds = %105, %72, %27, %21, %14
  %109 = load i32, ptr %2, align 4
  ret i32 %109
}