; Function Attrs: nounwind uwtable
define internal fastcc i32 @cli_scancryptff(ptr noundef %0) unnamed_addr #0 {
  %2 = tail call noalias dereferenceable_or_null(8192) ptr @malloc(i64 noundef 8192) #18
  %3 = icmp eq ptr %2, null
  br i1 %3, label %4, label %5

4:                                                ; preds = %1
  tail call void (ptr, ...) @cli_dbgmsg(ptr noundef nonnull @.str.286) #16
  br label %45

5:                                                ; preds = %1
  %6 = getelementptr inbounds nuw i8, ptr %0, i64 16
  %7 = load ptr, ptr %6, align 8
  %8 = tail call ptr @cli_gentemp_with_prefix(ptr noundef %7, ptr noundef nonnull @.str.287) #16
  %.not = icmp eq ptr %8, null
  br i1 %.not, label %9, label %10

9:                                                ; preds = %5
  tail call void @free(ptr noundef nonnull %2) #16
  br label %45

10:                                               ; preds = %5
  %11 = tail call i32 (ptr, i32, ...) @open(ptr noundef nonnull %8, i32 noundef 578, i32 noundef 384) #16
  %12 = getelementptr inbounds nuw i8, ptr %0, i64 96
  %13 = load ptr, ptr %12, align 8
  %14 = getelementptr inbounds nuw i8, ptr %13, i64 88
  %15 = load i64, ptr %14, align 8
  %.not.i46 = icmp ugt i64 %15, 16
  br i1 %.not.i46, label %fmap_need_off_once_len.exit, label %fmap_need_off_once_len.exit.thread

16:                                               ; preds = %._crit_edge
  %17 = add i64 %spec.select.i, %.047
  %18 = load ptr, ptr %12, align 8
  %19 = getelementptr inbounds nuw i8, ptr %18, i64 88
  %20 = load i64, ptr %19, align 8
  %.not.i = icmp ult i64 %17, %20
  br i1 %.not.i, label %fmap_need_off_once_len.exit, label %fmap_need_off_once_len.exit.thread

fmap_need_off_once_len.exit:                      ; preds = %10, %16
  %21 = phi i64 [ %20, %16 ], [ %15, %10 ]
  %22 = phi ptr [ %18, %16 ], [ %13, %10 ]
  %.047 = phi i64 [ %17, %16 ], [ 16, %10 ]
  %23 = sub nuw i64 %21, %.047
  %spec.select.i = tail call i64 @llvm.umin.i64(i64 %23, i64 8192)
  %24 = getelementptr inbounds nuw i8, ptr %22, i64 104
  %25 = load ptr, ptr %24, align 8
  %26 = tail call ptr %25(ptr noundef nonnull %22, i64 noundef %.047, i64 noundef %spec.select.i, i32 noundef 0) #16
  %.not20.i.not = icmp eq ptr %26, null
  br i1 %.not20.i.not, label %fmap_need_off_once_len.exit.thread, label %.preheader

.preheader:                                       ; preds = %fmap_need_off_once_len.exit
  %.not48 = icmp eq i64 %21, %.047
  br i1 %.not48, label %._crit_edge, label %.lr.ph.preheader

.lr.ph.preheader:                                 ; preds = %.preheader
  %umax = tail call i64 @llvm.umax.i64(i64 %spec.select.i, i64 1)
  br label %.lr.ph

.lr.ph:                                           ; preds = %.lr.ph.preheader, %.lr.ph
  %indvars.iv = phi i64 [ 0, %.lr.ph.preheader ], [ %indvars.iv.next, %.lr.ph ]
  %27 = getelementptr inbounds nuw i8, ptr %26, i64 %indvars.iv
  %28 = load i8, ptr %27, align 1
  %29 = xor i8 %28, -1
  %30 = getelementptr inbounds nuw i8, ptr %2, i64 %indvars.iv
  store i8 %29, ptr %30, align 1
  %indvars.iv.next = add nuw nsw i64 %indvars.iv, 1
  %exitcond.not = icmp eq i64 %indvars.iv.next, %umax
  br i1 %exitcond.not, label %._crit_edge, label %.lr.ph

._crit_edge:                                      ; preds = %.lr.ph, %.preheader
  %31 = tail call i64 @cli_writen(i32 noundef %11, ptr noundef nonnull %2, i64 noundef %spec.select.i) #16
  %32 = icmp eq i64 %31, -1
  br i1 %32, label %33, label %16

33:                                               ; preds = %._crit_edge
  tail call void (ptr, ...) @cli_dbgmsg(ptr noundef nonnull @.str.289, i32 noundef %11) #16
  tail call void @free(ptr noundef nonnull %2) #16
  %34 = tail call i32 @close(i32 noundef %11) #16
  tail call void @free(ptr noundef %8) #16
  br label %45

fmap_need_off_once_len.exit.thread:               ; preds = %fmap_need_off_once_len.exit, %16, %10
  tail call void @free(ptr noundef nonnull %2) #16
  tail call void (ptr, ...) @cli_dbgmsg(ptr noundef nonnull @.str.290) #16
  %35 = tail call i32 @cli_magic_scan_desc_type(i32 noundef %11, ptr noundef nonnull %8, ptr noundef nonnull %0, i32 noundef 0, ptr noundef null, i32 noundef 0)
  %36 = tail call i32 @close(i32 noundef %11) #16
  %37 = getelementptr inbounds nuw i8, ptr %0, i64 48
  %38 = load ptr, ptr %37, align 8
  %39 = getelementptr inbounds nuw i8, ptr %38, i64 40
  %40 = load i32, ptr %39, align 8
  %.not39 = icmp eq i32 %40, 0
  br i1 %.not39, label %42, label %41

41:                                               ; preds = %fmap_need_off_once_len.exit.thread
  tail call void (ptr, ...) @cli_dbgmsg(ptr noundef nonnull @.str.291, ptr noundef nonnull %8) #16
  br label %44

42:                                               ; preds = %fmap_need_off_once_len.exit.thread
  %43 = tail call i32 @cli_unlink(ptr noundef nonnull %8) #16
  %.not40 = icmp eq i32 %43, 0
  %spec.select = select i1 %.not40, i32 %35, i32 10
  br label %44

44:                                               ; preds = %42, %41
  %.032 = phi i32 [ %35, %41 ], [ %spec.select, %42 ]
  tail call void @free(ptr noundef nonnull %8) #16
  br label %45

45:                                               ; preds = %44, %33, %9, %4
  %.031 = phi i32 [ 20, %4 ], [ 14, %33 ], [ %.032, %44 ], [ 20, %9 ]
  ret i32 %.031
}